#include <math.h>
#include <stdio.h>
#include <stdlib.h>
#include <string.h>

int main(){
	int i,a,w1,w2,b;
	double n,k;
	a=0;
	b=0;
	char s1[502],s2[502];
     scanf("%lf",&n);
		scanf("%s %s",s1,s2);
		w1=strlen(s1); 
		w2=strlen(s2);
	
	if(w1!=w2){
         printf("error");
		 b=1;
	}
	else{
		for(i=0;i<w1;i++){
			if((s1[i]=='A'||s1[i]=='T'||s1[i]=='C'||s1[i]=='G')&&(s2[i]=='A'||s2[i]=='T'||s2[i]=='C'||s2[i]=='G')){
				if(s1[i]==s2[i]){
                               a++;
				}
			}
             
			else{
                 printf("error");
				 b=1;
				 break;
				}
		}
			k=1.0*a/w1;
			if(k>n&&b==0){
				printf("yes");
			}
			else if(k<=n&&b==0)
			{
				printf("no");
			}
	}   
	return 0;
}