; ModuleID = 'source-C-CXX/4/208.c'
source_filename = "source-C-CXX/4/208.c"
target datalayout = "e-m:e-p270:32:32-p271:32:32-p272:64:64-i64:64-f80:128-n8:16:32:64-S128"
target triple = "x86_64-pc-linux-gnu"

@.str = private unnamed_addr constant [4 x i8] c"%lf\00", align 1
@.str.1 = private unnamed_addr constant [6 x i8] c"%s %s\00", align 1
@.str.2 = private unnamed_addr constant [6 x i8] c"error\00", align 1
@.str.3 = private unnamed_addr constant [4 x i8] c"yes\00", align 1
@.str.4 = private unnamed_addr constant [3 x i8] c"no\00", align 1

; Function Attrs: nofree nounwind sspstrong uwtable
define dso_local i32 @main() local_unnamed_addr #0 {
  %1 = alloca double, align 8
  %2 = alloca [502 x i8], align 16
  %3 = alloca [502 x i8], align 16
  %4 = bitcast double* %1 to i8*
  call void @llvm.lifetime.start.p0i8(i64 8, i8* nonnull %4) #4
  %5 = getelementptr inbounds [502 x i8], [502 x i8]* %2, i64 0, i64 0
  call void @llvm.lifetime.start.p0i8(i64 502, i8* nonnull %5) #4
  %6 = getelementptr inbounds [502 x i8], [502 x i8]* %3, i64 0, i64 0
  call void @llvm.lifetime.start.p0i8(i64 502, i8* nonnull %6) #4
  %7 = call i32 (i8*, ...) @__isoc99_scanf(i8* getelementptr inbounds ([4 x i8], [4 x i8]* @.str, i64 0, i64 0), double* nonnull %1)
  %8 = call i32 (i8*, ...) @__isoc99_scanf(i8* getelementptr inbounds ([6 x i8], [6 x i8]* @.str.1, i64 0, i64 0), i8* nonnull %5, i8* nonnull %6)
  %9 = call i64 @strlen(i8* noundef nonnull %5) #5
  %10 = trunc i64 %9 to i32
  %11 = call i64 @strlen(i8* noundef nonnull %6) #5
  %12 = trunc i64 %11 to i32
  %13 = icmp eq i32 %10, %12
  br i1 %13, label %14, label %51

14:                                               ; preds = %0
  %15 = icmp sgt i32 %10, 0
  br i1 %15, label %16, label %38

16:                                               ; preds = %14
  %17 = shl i64 %9, 32
  %18 = ashr exact i64 %17, 32
  %19 = and i64 %9, 4294967295
  br label %20

20:                                               ; preds = %16, %29
  %21 = phi i64 [ 0, %16 ], [ %33, %29 ]
  %22 = phi i1 [ true, %16 ], [ %34, %29 ]
  %23 = phi i32 [ 0, %16 ], [ %32, %29 ]
  %24 = getelementptr inbounds [502 x i8], [502 x i8]* %2, i64 0, i64 %21
  %25 = load i8, i8* %24, align 1, !tbaa !5
  switch i8 %25, label %36 [
    i8 65, label %26
    i8 84, label %26
    i8 67, label %26
    i8 71, label %26
  ]

26:                                               ; preds = %20, %20, %20, %20
  %27 = getelementptr inbounds [502 x i8], [502 x i8]* %3, i64 0, i64 %21
  %28 = load i8, i8* %27, align 1, !tbaa !5
  switch i8 %28, label %36 [
    i8 65, label %29
    i8 84, label %29
    i8 67, label %29
    i8 71, label %29
  ]

29:                                               ; preds = %26, %26, %26, %26
  %30 = icmp eq i8 %25, %28
  %31 = zext i1 %30 to i32
  %32 = add nuw nsw i32 %23, %31
  %33 = add nuw nsw i64 %21, 1
  %34 = icmp slt i64 %33, %18
  %35 = icmp eq i64 %33, %19
  br i1 %35, label %38, label %20, !llvm.loop !8

36:                                               ; preds = %26, %20
  %37 = call i32 (i8*, ...) @printf(i8* nonnull dereferenceable(1) getelementptr inbounds ([6 x i8], [6 x i8]* @.str.2, i64 0, i64 0))
  br label %38

38:                                               ; preds = %29, %14, %36
  %39 = phi i32 [ %23, %36 ], [ 0, %14 ], [ %32, %29 ]
  %40 = phi i1 [ %22, %36 ], [ false, %14 ], [ %34, %29 ]
  %41 = xor i1 %40, true
  %42 = sitofp i32 %39 to double
  %43 = sitofp i32 %10 to double
  %44 = fdiv double %42, %43
  %45 = load double, double* %1, align 8, !tbaa !10
  %46 = fcmp ogt double %44, %45
  %47 = select i1 %46, i1 %41, i1 false
  br i1 %47, label %51, label %48

48:                                               ; preds = %38
  %49 = fcmp ole double %44, %45
  %50 = select i1 %49, i1 %41, i1 false
  br i1 %50, label %51, label %54

51:                                               ; preds = %48, %38, %0
  %52 = phi i8* [ getelementptr inbounds ([6 x i8], [6 x i8]* @.str.2, i64 0, i64 0), %0 ], [ getelementptr inbounds ([4 x i8], [4 x i8]* @.str.3, i64 0, i64 0), %38 ], [ getelementptr inbounds ([3 x i8], [3 x i8]* @.str.4, i64 0, i64 0), %48 ]
  %53 = call i32 (i8*, ...) @printf(i8* nonnull dereferenceable(1) %52)
  br label %54

54:                                               ; preds = %51, %48
  call void @llvm.lifetime.end.p0i8(i64 502, i8* nonnull %6) #4
  call void @llvm.lifetime.end.p0i8(i64 502, i8* nonnull %5) #4
  call void @llvm.lifetime.end.p0i8(i64 8, i8* nonnull %4) #4
  ret i32 0
}

; Function Attrs: argmemonly mustprogress nofree nosync nounwind willreturn
declare void @llvm.lifetime.start.p0i8(i64 immarg, i8* nocapture) #1

; Function Attrs: nofree nounwind
declare noundef i32 @__isoc99_scanf(i8* nocapture noundef readonly, ...) local_unnamed_addr #2

; Function Attrs: argmemonly mustprogress nofree nounwind readonly willreturn
declare i64 @strlen(i8* nocapture) local_unnamed_addr #3

; Function Attrs: nofree nounwind
declare noundef i32 @printf(i8* nocapture noundef readonly, ...) local_unnamed_addr #2

; Function Attrs: argmemonly mustprogress nofree nosync nounwind willreturn
declare void @llvm.lifetime.end.p0i8(i64 immarg, i8* nocapture) #1


!llvm.module.flags = !{!0, !1, !2, !3}
!llvm.ident = !{!4}

!0 = !{i32 1, !"wchar_size", i32 4}
!1 = !{i32 7, !"PIC Level", i32 2}
!2 = !{i32 7, !"PIE Level", i32 2}
!3 = !{i32 7, !"uwtable", i32 1}
!4 = !{!"clang version 13.0.0"}
!5 = !{!6, !6, i64 0}
!6 = !{!"omnipotent char", !7, i64 0}
!7 = !{!"Simple C/C++ TBAA"}
!8 = distinct !{!8, !9}
!9 = !{!"llvm.loop.mustprogress"}
!10 = !{!11, !11, i64 0}
!11 = !{!"double", !6, i64 0}
